; Function Attrs: mustprogress nofree norecurse nosync nounwind willreturn memory(argmem: readwrite) uwtable
define noundef zeroext i1 @_ZN6google8protobuf2io16ArrayInputStream4NextEPPKvPi(ptr nocapture noundef nonnull align 8 dereferenceable(32) %0, ptr nocapture noundef writeonly %1, ptr nocapture noundef writeonly %2) unnamed_addr #4 align 2 {
  %4 = getelementptr inbounds i8, ptr %0, i64 24
  %5 = load i32, ptr %4, align 8
  %6 = getelementptr inbounds i8, ptr %0, i64 16
  %7 = load i32, ptr %6, align 8
  %8 = icmp slt i32 %5, %7
  br i1 %8, label %9, label %21

9:                                                ; preds = %3
  %10 = getelementptr inbounds i8, ptr %0, i64 20
  %11 = sub nsw i32 %7, %5
  %12 = load i32, ptr %10, align 4
  %.sroa.speculated = tail call i32 @llvm.smin.i32(i32 %11, i32 %12)
  %13 = getelementptr inbounds i8, ptr %0, i64 28
  store i32 %.sroa.speculated, ptr %13, align 4
  %14 = getelementptr inbounds i8, ptr %0, i64 8
  %15 = load ptr, ptr %14, align 8
  %16 = sext i32 %5 to i64
  %17 = getelementptr inbounds i8, ptr %15, i64 %16
  store ptr %17, ptr %1, align 8
  %18 = load i32, ptr %13, align 4
  store i32 %18, ptr %2, align 4
  %19 = load i32, ptr %4, align 8
  %20 = add nsw i32 %19, %18
  store i32 %20, ptr %4, align 8
  br label %23

21:                                               ; preds = %3
  %22 = getelementptr inbounds i8, ptr %0, i64 28
  store i32 0, ptr %22, align 4
  br label %23

23:                                               ; preds = %21, %9
  ret i1 %8
}